; Function Attrs: mustprogress noreturn uwtable
define void @_ZN8facebook5velox6memory14MemoryPoolImpl23handleAllocationFailureERKNSt7__cxx1112basic_stringIcSt11char_traitsIcESaIcEEE(ptr nocapture noundef nonnull readonly align 8 dereferenceable(480) %this, ptr noundef nonnull align 8 dereferenceable(32) %failureMessage) local_unnamed_addr #12 align 2 personality ptr @__gxx_personality_v0 {
entry:
  %ref.tmp = alloca %"class.google::LogMessage", align 8
  %coreOnAllocationFailureEnabled_ = getelementptr inbounds i8, ptr %this, i64 92
  %0 = load i8, ptr %coreOnAllocationFailureEnabled_, align 4
  %1 = and i8 %0, 1
  %tobool.not = icmp eq i8 %1, 0
  br i1 %tobool.not, label %if.end, label %if.then

if.then:                                          ; preds = %entry
  call void @_ZN6google10LogMessageC1EPKcii(ptr noundef nonnull align 8 dereferenceable(16) %ref.tmp, ptr noundef nonnull @.str.20, i32 noundef 1158, i32 noundef 2)
  %call = invoke noundef nonnull align 8 dereferenceable(8) ptr @_ZN6google10LogMessage6streamEv(ptr noundef nonnull align 8 dereferenceable(16) %ref.tmp)
          to label %invoke.cont unwind label %lpad

invoke.cont:                                      ; preds = %if.then
  %call3 = invoke noundef nonnull align 8 dereferenceable(8) ptr @_ZStlsIcSt11char_traitsIcESaIcEERSt13basic_ostreamIT_T0_ES7_RKNSt7__cxx1112basic_stringIS4_S5_T1_EE(ptr noundef nonnull align 8 dereferenceable(8) %call, ptr noundef nonnull align 8 dereferenceable(32) %failureMessage)
          to label %invoke.cont2 unwind label %lpad

invoke.cont2:                                     ; preds = %invoke.cont
  call void @_ZN6google10LogMessageD1Ev(ptr noundef nonnull align 8 dereferenceable(16) %ref.tmp) #26
  %call4 = call i32 @raise(i32 noundef 7) #26
  br label %if.end

lpad:                                             ; preds = %invoke.cont, %if.then
  %2 = landingpad { ptr, i32 }
          cleanup
  call void @_ZN6google10LogMessageD1Ev(ptr noundef nonnull align 8 dereferenceable(16) %ref.tmp) #26
  resume { ptr, i32 } %2

if.end:                                           ; preds = %invoke.cont2, %entry
  call void @llvm.trap()
  unreachable
}